target datalayout = "e-m:e-p270:32:32-p271:32:32-p272:64:64-i64:64-i128:128-f80:128-n8:16:32:64-S128"
target triple = "x86_64-pc-linux-gnu"

%class.Metadata = type { ptr }
%class.OopHandle = type { ptr }
%class.AccessFlags = type { i32 }
%class.InstanceKlass = type { %class.Klass.base, ptr, ptr, ptr, ptr, ptr, ptr, ptr, ptr, ptr, ptr, i32, i32, i32, i32, i16, i16, i16, i16, i8, i8, i8, i8, %class.InstanceKlassFlags, ptr, ptr, ptr, ptr, ptr, i64, ptr, ptr, ptr, ptr, ptr, ptr, ptr, ptr, ptr, ptr, ptr, ptr, ptr }
%class.Klass.base = type <{ %class.Metadata, i32, i32, i32, i32, ptr, ptr, ptr, [8 x ptr], %class.OopHandle, ptr, ptr, ptr, ptr, ptr, i32, %class.AccessFlags, i64, i64, i8, i8, i16, i16, [2 x i8], i32 }>
%class.InstanceKlassFlags = type <{ i16, i8, i8 }>
%class.PackageEntry = type <{ ptr, ptr, i32, i16, i8, i8, ptr, i64, i32, [4 x i8] }>

; Function Attrs: mustprogress nounwind uwtable
define linkonce_odr hidden void @_ZN12PackageEntry19set_classpath_indexEs(ptr noundef nonnull align 8 dereferenceable(44) %0, i16 noundef signext %1) #1 comdat align 2 {
  %3 = alloca ptr, align 8
  %4 = alloca i16, align 2
  store ptr %0, ptr %3, align 8
  store i16 %1, ptr %4, align 2
  %5 = load ptr, ptr %3, align 8
  %6 = load i16, ptr %4, align 2
  %7 = getelementptr inbounds %class.PackageEntry, ptr %5, i32 0, i32 3
  store i16 %6, ptr %7, align 4
  ret void
}

; Function Attrs: mustprogress nounwind uwtable
define hidden void @_ZN13InstanceKlass19set_classpath_indexEs(ptr noundef nonnull align 8 dereferenceable(464) %0, i16 noundef signext %1) #1 align 2 {
  %3 = alloca ptr, align 8
  %4 = alloca i16, align 2
  store ptr %0, ptr %3, align 8
  store i16 %1, ptr %4, align 2
  %5 = load ptr, ptr %3, align 8
  %6 = getelementptr inbounds %class.InstanceKlass, ptr %5, i32 0, i32 2
  %7 = load ptr, ptr %6, align 8
  %8 = icmp ne ptr %7, null
  br i1 %8, label %9, label %13

9:                                                ; preds = %2
  %10 = getelementptr inbounds %class.InstanceKlass, ptr %5, i32 0, i32 2
  %11 = load ptr, ptr %10, align 8
  %12 = load i16, ptr %4, align 2
  call void @_ZN12PackageEntry19set_classpath_indexEs(ptr noundef nonnull align 8 dereferenceable(44) %11, i16 noundef signext %12)
  br label %13

13:                                               ; preds = %9, %2
  ret void
}