; Function Attrs: mustprogress nofree norecurse nosync nounwind willreturn memory(write, argmem: readwrite, inaccessiblemem: none) uwtable
define hidden void @_ZN13InstanceKlass19set_classpath_indexEs(ptr nocapture noundef nonnull readonly align 8 dereferenceable(464) %0, i16 noundef signext %1) local_unnamed_addr #12 align 2 {
  %3 = getelementptr inbounds i8, ptr %0, i64 208
  %4 = load ptr, ptr %3, align 8
  %.not = icmp eq ptr %4, null
  br i1 %.not, label %7, label %5

5:                                                ; preds = %2
  %6 = getelementptr inbounds i8, ptr %4, i64 20
  store i16 %1, ptr %6, align 4
  br label %7

7:                                                ; preds = %5, %2
  ret void
}